; Function Attrs: mustprogress nofree norecurse nosync nounwind willreturn memory(read, argmem: readwrite, inaccessiblemem: none) uwtable
define void @_ZN7rocksdb29ParsePackedValueWithWriteTimeERKNS_5SliceE(ptr dead_on_unwind noalias writable writeonly sret(%"class.std::tuple.14") align 8 captures(none) initializes((0, 24)) %0, ptr noundef nonnull readonly align 8 captures(none) dereferenceable(16) %1) local_unnamed_addr #10 personality ptr @__gxx_personality_v0 {
  %3 = load ptr, ptr %1, align 8, !tbaa !259
  %4 = getelementptr inbounds nuw i8, ptr %1, i64 8
  %5 = load i64, ptr %4, align 8, !tbaa !261
  %6 = add i64 %5, -8
  %7 = getelementptr inbounds nuw i8, ptr %3, i64 %5
  %8 = getelementptr inbounds i8, ptr %7, i64 -8
  %.0.copyload.i.i.i = load i64, ptr %8, align 1
  store i64 %.0.copyload.i.i.i, ptr %0, align 8, !tbaa !321, !alias.scope !323
  %9 = getelementptr inbounds nuw i8, ptr %0, i64 8
  store ptr %3, ptr %9, align 8, !tbaa !262
  %.sroa.4.0..sroa_idx = getelementptr inbounds nuw i8, ptr %0, i64 16
  store i64 %6, ptr %.sroa.4.0..sroa_idx, align 8, !tbaa !113
  ret void
}